; ModuleID = '51/189.c'
source_filename = "51/189.c"
target datalayout = "e-m:e-p270:32:32-p271:32:32-p272:64:64-i64:64-f80:128-n8:16:32:64-S128"
target triple = "x86_64-pc-linux-gnu"

@.str = private unnamed_addr constant [3 x i8] c"%d\00", align 1
@.str.1 = private unnamed_addr constant [4 x i8] c"NO\0A\00", align 1
@.str.2 = private unnamed_addr constant [4 x i8] c"%d\0A\00", align 1

; Function Attrs: noinline nounwind uwtable
define dso_local i32 @main() #0 {
  %1 = alloca i32, align 4
  %2 = alloca i32, align 4
  %3 = alloca i32, align 4
  %4 = alloca i32, align 4
  %5 = alloca i32, align 4
  %6 = alloca [500 x i32], align 16
  %7 = alloca i32, align 4
  %8 = alloca [500 x i32], align 16
  %9 = alloca [500 x i8], align 16
  %10 = alloca [500 x [5 x i8]], align 16
  store i32 0, i32* %1, align 4
  %11 = bitcast [500 x i32]* %6 to i8*
  call void @llvm.memset.p0i8.i64(i8* align 16 %11, i8 0, i64 2000, i1 false)
  store i32 0, i32* %7, align 4
  %12 = bitcast [500 x i32]* %8 to i8*
  call void @llvm.memset.p0i8.i64(i8* align 16 %12, i8 0, i64 2000, i1 false)
  %13 = bitcast [500 x i8]* %9 to i8*
  call void @llvm.memset.p0i8.i64(i8* align 16 %13, i8 0, i64 500, i1 false)
  %14 = bitcast [500 x [5 x i8]]* %10 to i8*
  call void @llvm.memset.p0i8.i64(i8* align 16 %14, i8 0, i64 2500, i1 false)
  %15 = call i32 (i8*, ...) @__isoc99_scanf(i8* getelementptr inbounds ([3 x i8], [3 x i8]* @.str, i64 0, i64 0), i32* %2)
  %16 = call i32 @getchar()
  %17 = getelementptr inbounds [500 x i8], [500 x i8]* %9, i64 0, i64 0
  %18 = call i32 (i8*, ...) bitcast (i32 (...)* @gets to i32 (i8*, ...)*)(i8* %17)
  %19 = getelementptr inbounds [500 x i8], [500 x i8]* %9, i64 0, i64 0
  %20 = call i64 @strlen(i8* %19) #4
  %21 = trunc i64 %20 to i32
  store i32 %21, i32* %3, align 4
  store i32 0, i32* %4, align 4
  br label %22

22:                                               ; preds = %50, %0
  %23 = load i32, i32* %4, align 4
  %24 = load i32, i32* %2, align 4
  %25 = add nsw i32 %23, %24
  %26 = load i32, i32* %3, align 4
  %27 = icmp sle i32 %25, %26
  br i1 %27, label %28, label %53

28:                                               ; preds = %22
  store i32 0, i32* %5, align 4
  br label %29

29:                                               ; preds = %46, %28
  %30 = load i32, i32* %5, align 4
  %31 = load i32, i32* %2, align 4
  %32 = icmp slt i32 %30, %31
  br i1 %32, label %33, label %49

33:                                               ; preds = %29
  %34 = load i32, i32* %4, align 4
  %35 = load i32, i32* %5, align 4
  %36 = add nsw i32 %34, %35
  %37 = sext i32 %36 to i64
  %38 = getelementptr inbounds [500 x i8], [500 x i8]* %9, i64 0, i64 %37
  %39 = load i8, i8* %38, align 1
  %40 = load i32, i32* %4, align 4
  %41 = sext i32 %40 to i64
  %42 = getelementptr inbounds [500 x [5 x i8]], [500 x [5 x i8]]* %10, i64 0, i64 %41
  %43 = load i32, i32* %5, align 4
  %44 = sext i32 %43 to i64
  %45 = getelementptr inbounds [5 x i8], [5 x i8]* %42, i64 0, i64 %44
  store i8 %39, i8* %45, align 1
  br label %46

46:                                               ; preds = %33
  %47 = load i32, i32* %5, align 4
  %48 = add nsw i32 %47, 1
  store i32 %48, i32* %5, align 4
  br label %29

49:                                               ; preds = %29
  br label %50

50:                                               ; preds = %49
  %51 = load i32, i32* %4, align 4
  %52 = add nsw i32 %51, 1
  store i32 %52, i32* %4, align 4
  br label %22

53:                                               ; preds = %22
  store i32 0, i32* %4, align 4
  br label %54

54:                                               ; preds = %105, %53
  %55 = load i32, i32* %4, align 4
  %56 = load i32, i32* %2, align 4
  %57 = add nsw i32 %55, %56
  %58 = load i32, i32* %3, align 4
  %59 = icmp sle i32 %57, %58
  br i1 %59, label %60, label %108

60:                                               ; preds = %54
  store i32 0, i32* %5, align 4
  br label %61

61:                                               ; preds = %101, %60
  %62 = load i32, i32* %5, align 4
  %63 = load i32, i32* %2, align 4
  %64 = add nsw i32 %62, %63
  %65 = load i32, i32* %3, align 4
  %66 = icmp sle i32 %64, %65
  br i1 %66, label %67, label %104

67:                                               ; preds = %61
  %68 = load i32, i32* %4, align 4
  %69 = sext i32 %68 to i64
  %70 = getelementptr inbounds [500 x [5 x i8]], [500 x [5 x i8]]* %10, i64 0, i64 %69
  %71 = getelementptr inbounds [5 x i8], [5 x i8]* %70, i64 0, i64 0
  %72 = load i32, i32* %5, align 4
  %73 = sext i32 %72 to i64
  %74 = getelementptr inbounds [500 x [5 x i8]], [500 x [5 x i8]]* %10, i64 0, i64 %73
  %75 = getelementptr inbounds [5 x i8], [5 x i8]* %74, i64 0, i64 0
  %76 = call i32 @strcmp(i8* %71, i8* %75) #4
  %77 = icmp eq i32 %76, 0
  br i1 %77, label %78, label %100

78:                                               ; preds = %67
  %79 = load i32, i32* %4, align 4
  %80 = sext i32 %79 to i64
  %81 = getelementptr inbounds [500 x i32], [500 x i32]* %6, i64 0, i64 %80
  %82 = load i32, i32* %81, align 4
  %83 = add nsw i32 %82, 1
  store i32 %83, i32* %81, align 4
  %84 = load i32, i32* %4, align 4
  %85 = load i32, i32* %5, align 4
  %86 = icmp slt i32 %84, %85
  br i1 %86, label %87, label %91

87:                                               ; preds = %78
  %88 = load i32, i32* %5, align 4
  %89 = sext i32 %88 to i64
  %90 = getelementptr inbounds [500 x i32], [500 x i32]* %8, i64 0, i64 %89
  store i32 1, i32* %90, align 4
  br label %91

91:                                               ; preds = %87, %78
  %92 = load i32, i32* %4, align 4
  %93 = load i32, i32* %5, align 4
  %94 = icmp sgt i32 %92, %93
  br i1 %94, label %95, label %99

95:                                               ; preds = %91
  %96 = load i32, i32* %4, align 4
  %97 = sext i32 %96 to i64
  %98 = getelementptr inbounds [500 x i32], [500 x i32]* %8, i64 0, i64 %97
  store i32 1, i32* %98, align 4
  br label %99

99:                                               ; preds = %95, %91
  br label %100

100:                                              ; preds = %99, %67
  br label %101

101:                                              ; preds = %100
  %102 = load i32, i32* %5, align 4
  %103 = add nsw i32 %102, 1
  store i32 %103, i32* %5, align 4
  br label %61

104:                                              ; preds = %61
  br label %105

105:                                              ; preds = %104
  %106 = load i32, i32* %4, align 4
  %107 = add nsw i32 %106, 1
  store i32 %107, i32* %4, align 4
  br label %54

108:                                              ; preds = %54
  store i32 0, i32* %4, align 4
  br label %109

109:                                              ; preds = %128, %108
  %110 = load i32, i32* %4, align 4
  %111 = load i32, i32* %2, align 4
  %112 = add nsw i32 %110, %111
  %113 = load i32, i32* %3, align 4
  %114 = icmp sle i32 %112, %113
  br i1 %114, label %115, label %131

115:                                              ; preds = %109
  %116 = load i32, i32* %4, align 4
  %117 = sext i32 %116 to i64
  %118 = getelementptr inbounds [500 x i32], [500 x i32]* %6, i64 0, i64 %117
  %119 = load i32, i32* %118, align 4
  %120 = load i32, i32* %7, align 4
  %121 = icmp sgt i32 %119, %120
  br i1 %121, label %122, label %127

122:                                              ; preds = %115
  %123 = load i32, i32* %4, align 4
  %124 = sext i32 %123 to i64
  %125 = getelementptr inbounds [500 x i32], [500 x i32]* %6, i64 0, i64 %124
  %126 = load i32, i32* %125, align 4
  store i32 %126, i32* %7, align 4
  br label %127

127:                                              ; preds = %122, %115
  br label %128

128:                                              ; preds = %127
  %129 = load i32, i32* %4, align 4
  %130 = add nsw i32 %129, 1
  store i32 %130, i32* %4, align 4
  br label %109

131:                                              ; preds = %109
  %132 = load i32, i32* %7, align 4
  %133 = icmp sle i32 %132, 1
  br i1 %133, label %134, label %137

134:                                              ; preds = %131
  %135 = load i32, i32* %7, align 4
  %136 = call i32 (i8*, ...) @printf(i8* getelementptr inbounds ([4 x i8], [4 x i8]* @.str.1, i64 0, i64 0), i32 %135)
  br label %170

137:                                              ; preds = %131
  %138 = load i32, i32* %7, align 4
  %139 = call i32 (i8*, ...) @printf(i8* getelementptr inbounds ([4 x i8], [4 x i8]* @.str.2, i64 0, i64 0), i32 %138)
  store i32 0, i32* %4, align 4
  br label %140

140:                                              ; preds = %166, %137
  %141 = load i32, i32* %4, align 4
  %142 = load i32, i32* %2, align 4
  %143 = add nsw i32 %141, %142
  %144 = load i32, i32* %3, align 4
  %145 = icmp sle i32 %143, %144
  br i1 %145, label %146, label %169

146:                                              ; preds = %140
  %147 = load i32, i32* %4, align 4
  %148 = sext i32 %147 to i64
  %149 = getelementptr inbounds [500 x i32], [500 x i32]* %6, i64 0, i64 %148
  %150 = load i32, i32* %149, align 4
  %151 = load i32, i32* %7, align 4
  %152 = icmp eq i32 %150, %151
  br i1 %152, label %153, label %165

153:                                              ; preds = %146
  %154 = load i32, i32* %4, align 4
  %155 = sext i32 %154 to i64
  %156 = getelementptr inbounds [500 x i32], [500 x i32]* %8, i64 0, i64 %155
  %157 = load i32, i32* %156, align 4
  %158 = icmp eq i32 %157, 0
  br i1 %158, label %159, label %165

159:                                              ; preds = %153
  %160 = load i32, i32* %4, align 4
  %161 = sext i32 %160 to i64
  %162 = getelementptr inbounds [500 x [5 x i8]], [500 x [5 x i8]]* %10, i64 0, i64 %161
  %163 = getelementptr inbounds [5 x i8], [5 x i8]* %162, i64 0, i64 0
  %164 = call i32 @puts(i8* %163)
  br label %165

165:                                              ; preds = %159, %153, %146
  br label %166

166:                                              ; preds = %165
  %167 = load i32, i32* %4, align 4
  %168 = add nsw i32 %167, 1
  store i32 %168, i32* %4, align 4
  br label %140

169:                                              ; preds = %140
  br label %170

170:                                              ; preds = %169, %134
  %171 = load i32, i32* %1, align 4
  ret i32 %171
}

; Function Attrs: argmemonly nounwind willreturn
declare void @llvm.memset.p0i8.i64(i8* nocapture writeonly, i8, i64, i1 immarg) #1

declare dso_local i32 @__isoc99_scanf(i8*, ...) #2

declare dso_local i32 @getchar() #2

declare dso_local i32 @gets(...) #2

; Function Attrs: nounwind readonly
declare dso_local i64 @strlen(i8*) #3

; Function Attrs: nounwind readonly
declare dso_local i32 @strcmp(i8*, i8*) #3

declare dso_local i32 @printf(i8*, ...) #2

declare dso_local i32 @puts(i8*) #2


!llvm.module.flags = !{!0}
!llvm.ident = !{!1}

!0 = !{i32 1, !"wchar_size", i32 4}
!1 = !{!"clang version 10.0.0-4ubuntu1 "}
